; Function Attrs: mustprogress nofree norecurse nounwind willreturn memory(argmem: readwrite) uwtable
define noundef double @_ZNK7rocksdb13HistogramImpl7AverageEv(ptr noundef nonnull readonly align 8 captures(none) dereferenceable(968) %0) unnamed_addr #6 align 2 personality ptr @__gxx_personality_v0 {
  %2 = getelementptr inbounds nuw i8, ptr %0, i64 24
  %3 = load atomic i64, ptr %2 monotonic, align 8
  %4 = getelementptr inbounds nuw i8, ptr %0, i64 32
  %5 = load atomic i64, ptr %4 monotonic, align 8
  %6 = icmp eq i64 %3, 0
  %7 = uitofp i64 %5 to double
  %8 = uitofp i64 %3 to double
  %9 = fdiv double %7, %8
  %.0.i = select i1 %6, double 0.000000e+00, double %9
  ret double %.0.i
}